target datalayout = "e-m:e-p270:32:32-p271:32:32-p272:64:64-i64:64-i128:128-f80:128-n8:16:32:64-S128"
target triple = "x86_64-pc-linux-gnu"

%struct.__va_list_tag = type { i32, i32, ptr, ptr }

; Function Attrs: nounwind uwtable
define internal void @update_md5_strings(ptr noundef %0, ...) #0 {
  %2 = alloca ptr, align 8
  %3 = alloca [1 x %struct.__va_list_tag], align 16
  %4 = alloca ptr, align 8
  %5 = alloca i32, align 4
  store ptr %0, ptr %2, align 8, !tbaa !28
  call void @llvm.lifetime.start.p0(i64 24, ptr %3) #8
  %6 = getelementptr inbounds [1 x %struct.__va_list_tag], ptr %3, i64 0, i64 0
  call void @llvm.va_start.p0(ptr %6)
  br label %7

7:                                                ; preds = %35, %1
  br label %8

8:                                                ; preds = %7
  call void @llvm.lifetime.start.p0(i64 8, ptr %4) #8
  %9 = getelementptr inbounds [1 x %struct.__va_list_tag], ptr %3, i64 0, i64 0
  %10 = getelementptr inbounds nuw %struct.__va_list_tag, ptr %9, i32 0, i32 0
  %11 = load i32, ptr %10, align 16
  %12 = icmp ule i32 %11, 40
  br i1 %12, label %13, label %18

13:                                               ; preds = %8
  %14 = getelementptr inbounds nuw %struct.__va_list_tag, ptr %9, i32 0, i32 3
  %15 = load ptr, ptr %14, align 16
  %16 = getelementptr i8, ptr %15, i32 %11
  %17 = add i32 %11, 8
  store i32 %17, ptr %10, align 16
  br label %22

18:                                               ; preds = %8
  %19 = getelementptr inbounds nuw %struct.__va_list_tag, ptr %9, i32 0, i32 2
  %20 = load ptr, ptr %19, align 8
  %21 = getelementptr i8, ptr %20, i32 8
  store ptr %21, ptr %19, align 8
  br label %22

22:                                               ; preds = %18, %13
  %23 = phi ptr [ %16, %13 ], [ %20, %18 ]
  %24 = load ptr, ptr %23, align 8, !tbaa !9
  store ptr %24, ptr %4, align 8, !tbaa !9
  %25 = load ptr, ptr %4, align 8, !tbaa !9
  %26 = icmp ne ptr %25, null
  br i1 %26, label %28, label %27

27:                                               ; preds = %22
  store i32 3, ptr %5, align 4
  br label %33

28:                                               ; preds = %22
  %29 = load ptr, ptr %2, align 8, !tbaa !28
  %30 = load ptr, ptr %4, align 8, !tbaa !9
  %31 = load ptr, ptr %4, align 8, !tbaa !9
  %32 = call i64 @strlen(ptr noundef %31) #9
  call void @av_md5_update(ptr noundef %29, ptr noundef %30, i64 noundef %32)
  store i32 0, ptr %5, align 4
  br label %33

33:                                               ; preds = %28, %27
  call void @llvm.lifetime.end.p0(i64 8, ptr %4) #8
  %34 = load i32, ptr %5, align 4
  switch i32 %34, label %38 [
    i32 0, label %35
    i32 3, label %36
  ]

35:                                               ; preds = %33
  br label %7

36:                                               ; preds = %33
  %37 = getelementptr inbounds [1 x %struct.__va_list_tag], ptr %3, i64 0, i64 0
  call void @llvm.va_end.p0(ptr %37)
  call void @llvm.lifetime.end.p0(i64 24, ptr %3) #8
  ret void

38:                                               ; preds = %33
  unreachable
}