; Function Attrs: nounwind uwtable
define internal void @update_md5_strings(ptr noundef nonnull %0, ...) unnamed_addr #0 {
  %2 = alloca [1 x %struct.__va_list_tag], align 16
  call void @llvm.lifetime.start.p0(i64 24, ptr nonnull %2) #8
  call void @llvm.va_start.p0(ptr nonnull %2)
  %3 = getelementptr inbounds nuw i8, ptr %2, i64 8
  %4 = getelementptr inbounds nuw i8, ptr %2, i64 16
  br label %5

5:                                                ; preds = %19, %1
  %6 = load i32, ptr %2, align 16
  %7 = icmp ult i32 %6, 41
  br i1 %7, label %8, label %13

8:                                                ; preds = %5
  %9 = load ptr, ptr %4, align 16
  %10 = zext nneg i32 %6 to i64
  %11 = getelementptr i8, ptr %9, i64 %10
  %12 = add nuw nsw i32 %6, 8
  store i32 %12, ptr %2, align 16
  br label %16

13:                                               ; preds = %5
  %14 = load ptr, ptr %3, align 8
  %15 = getelementptr i8, ptr %14, i64 8
  store ptr %15, ptr %3, align 8
  br label %16

16:                                               ; preds = %13, %8
  %17 = phi ptr [ %11, %8 ], [ %14, %13 ]
  %18 = load ptr, ptr %17, align 8, !tbaa !12
  %.not = icmp eq ptr %18, null
  br i1 %.not, label %21, label %19

19:                                               ; preds = %16
  %20 = call i64 @strlen(ptr noundef nonnull dereferenceable(1) %18) #9
  call void @av_md5_update(ptr noundef nonnull %0, ptr noundef nonnull %18, i64 noundef %20) #8
  br label %5

21:                                               ; preds = %16
  call void @llvm.va_end.p0(ptr nonnull %2)
  call void @llvm.lifetime.end.p0(i64 24, ptr nonnull %2) #8
  ret void
}